target datalayout = "e-m:e-p270:32:32-p271:32:32-p272:64:64-i64:64-i128:128-f80:128-n8:16:32:64-S128"
target triple = "x86_64-pc-linux-gnu"

%"class.cv::utils::trace::details::Region" = type <{ ptr, i32, [4 x i8] }>
%"class.cv::_InputArray" = type { i32, ptr, %"class.cv::Size_" }
%"class.cv::Size_" = type { i32, i32 }
%"class.cv::Vec" = type { %"class.cv::Matx" }
%"class.cv::Matx" = type { [3 x double] }
%"class.cv::Affine3" = type { %"class.cv::Matx.0" }
%"class.cv::Matx.0" = type { [16 x double] }

; Function Attrs: inlinehint mustprogress nounwind uwtable
define linkonce_odr hidden void @_ZN2cv4MatxIdLi3ELi1EEC2Eddd(ptr noundef nonnull align 8 dereferenceable(24) %0, double noundef %1, double noundef %2, double noundef %3) unnamed_addr #7 comdat align 2 {
  %5 = alloca ptr, align 8
  %6 = alloca double, align 8
  %7 = alloca double, align 8
  %8 = alloca double, align 8
  %9 = alloca i32, align 4
  store ptr %0, ptr %5, align 8, !tbaa !46
  store double %1, ptr %6, align 8, !tbaa !12
  store double %2, ptr %7, align 8, !tbaa !12
  store double %3, ptr %8, align 8, !tbaa !12
  %10 = load ptr, ptr %5, align 8
  %11 = load double, ptr %6, align 8, !tbaa !12
  %12 = getelementptr inbounds nuw %"class.cv::Matx", ptr %10, i32 0, i32 0
  %13 = getelementptr inbounds [3 x double], ptr %12, i64 0, i64 0
  store double %11, ptr %13, align 8, !tbaa !12
  %14 = load double, ptr %7, align 8, !tbaa !12
  %15 = getelementptr inbounds nuw %"class.cv::Matx", ptr %10, i32 0, i32 0
  %16 = getelementptr inbounds [3 x double], ptr %15, i64 0, i64 1
  store double %14, ptr %16, align 8, !tbaa !12
  %17 = load double, ptr %8, align 8, !tbaa !12
  %18 = getelementptr inbounds nuw %"class.cv::Matx", ptr %10, i32 0, i32 0
  %19 = getelementptr inbounds [3 x double], ptr %18, i64 0, i64 2
  store double %17, ptr %19, align 8, !tbaa !12
  call void @llvm.lifetime.start.p0(i64 4, ptr %9) #3
  store i32 3, ptr %9, align 4, !tbaa !24
  br label %20

20:                                               ; preds = %29, %4
  %21 = load i32, ptr %9, align 4, !tbaa !24
  %22 = icmp slt i32 %21, 3
  br i1 %22, label %24, label %23

23:                                               ; preds = %20
  call void @llvm.lifetime.end.p0(i64 4, ptr %9) #3
  br label %32

24:                                               ; preds = %20
  %25 = getelementptr inbounds nuw %"class.cv::Matx", ptr %10, i32 0, i32 0
  %26 = load i32, ptr %9, align 4, !tbaa !24
  %27 = sext i32 %26 to i64
  %28 = getelementptr inbounds [3 x double], ptr %25, i64 0, i64 %27
  store double 0.000000e+00, ptr %28, align 8, !tbaa !12
  br label %29

29:                                               ; preds = %24
  %30 = load i32, ptr %9, align 4, !tbaa !24
  %31 = add nsw i32 %30, 1
  store i32 %31, ptr %9, align 4, !tbaa !24
  br label %20, !llvm.loop !279

32:                                               ; preds = %23
  ret void
}

; Function Attrs: inlinehint mustprogress uwtable
define linkonce_odr hidden void @_ZN2cv3VecIdLi3EEC2Eddd(ptr noundef nonnull align 8 dereferenceable(24) %0, double noundef %1, double noundef %2, double noundef %3) unnamed_addr #6 comdat align 2 {
  %5 = alloca ptr, align 8
  %6 = alloca double, align 8
  %7 = alloca double, align 8
  %8 = alloca double, align 8
  store ptr %0, ptr %5, align 8, !tbaa !28
  store double %1, ptr %6, align 8, !tbaa !12
  store double %2, ptr %7, align 8, !tbaa !12
  store double %3, ptr %8, align 8, !tbaa !12
  %9 = load ptr, ptr %5, align 8
  %10 = load double, ptr %6, align 8, !tbaa !12
  %11 = load double, ptr %7, align 8, !tbaa !12
  %12 = load double, ptr %8, align 8, !tbaa !12
  call void @_ZN2cv4MatxIdLi3ELi1EEC2Eddd(ptr noundef nonnull align 8 dereferenceable(24) %9, double noundef %10, double noundef %11, double noundef %12)
  ret void
}

; Function Attrs: inlinehint mustprogress nounwind uwtable
define linkonce_odr hidden void @_ZN2cv11_InputArray4initEiPKvNS_5Size_IiEE(ptr noundef nonnull align 8 dereferenceable(24) %0, i32 noundef %1, ptr noundef %2, i64 %3) #7 comdat align 2 {
  %5 = alloca %"class.cv::Size_", align 4
  %6 = alloca ptr, align 8
  %7 = alloca i32, align 4
  %8 = alloca ptr, align 8
  store i64 %3, ptr %5, align 4
  store ptr %0, ptr %6, align 8, !tbaa !3
  store i32 %1, ptr %7, align 4, !tbaa !24
  store ptr %2, ptr %8, align 8, !tbaa !247
  %9 = load ptr, ptr %6, align 8
  %10 = load i32, ptr %7, align 4, !tbaa !24
  %11 = getelementptr inbounds nuw %"class.cv::_InputArray", ptr %9, i32 0, i32 0
  store i32 %10, ptr %11, align 8, !tbaa !248
  %12 = load ptr, ptr %8, align 8, !tbaa !247
  %13 = getelementptr inbounds nuw %"class.cv::_InputArray", ptr %9, i32 0, i32 1
  store ptr %12, ptr %13, align 8, !tbaa !59
  %14 = getelementptr inbounds nuw %"class.cv::_InputArray", ptr %9, i32 0, i32 2
  call void @llvm.memcpy.p0.p0.i64(ptr align 8 %14, ptr align 4 %5, i64 8, i1 false), !tbaa.struct !122
  ret void
}

; Function Attrs: inlinehint mustprogress nounwind uwtable
define linkonce_odr hidden void @_ZN2cv5Size_IiEC2Eii(ptr noundef nonnull align 4 dereferenceable(8) %0, i32 noundef %1, i32 noundef %2) unnamed_addr #7 comdat align 2 {
  %4 = alloca ptr, align 8
  %5 = alloca i32, align 4
  %6 = alloca i32, align 4
  store ptr %0, ptr %4, align 8, !tbaa !75
  store i32 %1, ptr %5, align 4, !tbaa !24
  store i32 %2, ptr %6, align 4, !tbaa !24
  %7 = load ptr, ptr %4, align 8
  %8 = getelementptr inbounds nuw %"class.cv::Size_", ptr %7, i32 0, i32 0
  %9 = load i32, ptr %5, align 4, !tbaa !24
  store i32 %9, ptr %8, align 4, !tbaa !77
  %10 = getelementptr inbounds nuw %"class.cv::Size_", ptr %7, i32 0, i32 1
  %11 = load i32, ptr %6, align 4, !tbaa !24
  store i32 %11, ptr %10, align 4, !tbaa !78
  ret void
}

; Function Attrs: inlinehint mustprogress nounwind uwtable
define linkonce_odr hidden void @_ZN2cv5Size_IiEC2Ev(ptr noundef nonnull align 4 dereferenceable(8) %0) unnamed_addr #7 comdat align 2 {
  %2 = alloca ptr, align 8
  store ptr %0, ptr %2, align 8, !tbaa !75
  %3 = load ptr, ptr %2, align 8
  %4 = getelementptr inbounds nuw %"class.cv::Size_", ptr %3, i32 0, i32 0
  store i32 0, ptr %4, align 4, !tbaa !77
  %5 = getelementptr inbounds nuw %"class.cv::Size_", ptr %3, i32 0, i32 1
  store i32 0, ptr %5, align 4, !tbaa !78
  ret void
}

; Function Attrs: inlinehint mustprogress nounwind uwtable
define linkonce_odr hidden void @_ZN2cv11_InputArrayD2Ev(ptr noundef nonnull align 8 dereferenceable(24) %0) unnamed_addr #7 comdat align 2 {
  %2 = alloca ptr, align 8
  store ptr %0, ptr %2, align 8, !tbaa !3
  ret void
}

; Function Attrs: inlinehint mustprogress uwtable
define linkonce_odr hidden void @_ZNK2cv7Affine3IdE11translationEv(ptr dead_on_unwind noalias writable sret(%"class.cv::Vec") align 8 %0, ptr noundef nonnull align 8 dereferenceable(128) %1) #6 comdat align 2 {
  %3 = alloca ptr, align 8
  %4 = alloca ptr, align 8
  store ptr %0, ptr %3, align 8
  store ptr %1, ptr %4, align 8, !tbaa !10
  %5 = load ptr, ptr %4, align 8
  %6 = getelementptr inbounds nuw %"class.cv::Affine3", ptr %5, i32 0, i32 0
  %7 = getelementptr inbounds nuw %"class.cv::Matx.0", ptr %6, i32 0, i32 0
  %8 = getelementptr inbounds [16 x double], ptr %7, i64 0, i64 3
  %9 = load double, ptr %8, align 8, !tbaa !12
  %10 = getelementptr inbounds nuw %"class.cv::Affine3", ptr %5, i32 0, i32 0
  %11 = getelementptr inbounds nuw %"class.cv::Matx.0", ptr %10, i32 0, i32 0
  %12 = getelementptr inbounds [16 x double], ptr %11, i64 0, i64 7
  %13 = load double, ptr %12, align 8, !tbaa !12
  %14 = getelementptr inbounds nuw %"class.cv::Affine3", ptr %5, i32 0, i32 0
  %15 = getelementptr inbounds nuw %"class.cv::Matx.0", ptr %14, i32 0, i32 0
  %16 = getelementptr inbounds [16 x double], ptr %15, i64 0, i64 11
  %17 = load double, ptr %16, align 8, !tbaa !12
  call void @_ZN2cv3VecIdLi3EEC2Eddd(ptr noundef nonnull align 8 dereferenceable(24) %0, double noundef %9, double noundef %13, double noundef %17)
  ret void
}

; Function Attrs: inlinehint mustprogress uwtable
define linkonce_odr hidden void @_ZN2cv11_InputArrayC2IdLi3ELi1EEERKNS_4MatxIT_XT0_EXT1_EEE(ptr noundef nonnull align 8 dereferenceable(24) %0, ptr noundef nonnull align 8 dereferenceable(24) %1) unnamed_addr #6 comdat align 2 {
  %3 = alloca ptr, align 8
  %4 = alloca ptr, align 8
  %5 = alloca %"class.cv::Size_", align 4
  store ptr %0, ptr %3, align 8, !tbaa !3
  store ptr %1, ptr %4, align 8, !tbaa !46
  %6 = load ptr, ptr %3, align 8
  %7 = getelementptr inbounds nuw %"class.cv::_InputArray", ptr %6, i32 0, i32 2
  call void @_ZN2cv5Size_IiEC2Ev(ptr noundef nonnull align 4 dereferenceable(8) %7)
  %8 = load ptr, ptr %4, align 8, !tbaa !46
  call void @_ZN2cv5Size_IiEC2Eii(ptr noundef nonnull align 4 dereferenceable(8) %5, i32 noundef 1, i32 noundef 3)
  %9 = load i64, ptr %5, align 4
  call void @_ZN2cv11_InputArray4initEiPKvNS_5Size_IiEE(ptr noundef nonnull align 8 dereferenceable(24) %6, i32 noundef -1056833530, ptr noundef %8, i64 %9)
  ret void
}

; Function Attrs: mustprogress uwtable
define void @_ZN2cv7fisheye13projectPointsERKNS_11_InputArrayERKNS_12_OutputArrayERKNS_7Affine3IdEES3_S3_dS6_(ptr noundef nonnull align 8 dereferenceable(24) %0, ptr noundef nonnull align 8 dereferenceable(24) %1, ptr noundef nonnull align 8 dereferenceable(128) %2, ptr noundef nonnull align 8 dereferenceable(24) %3, ptr noundef nonnull align 8 dereferenceable(24) %4, double noundef %5, ptr noundef nonnull align 8 dereferenceable(24) %6) #4 personality ptr @__gxx_personality_v0 {
  %8 = alloca ptr, align 8
  %9 = alloca ptr, align 8
  %10 = alloca ptr, align 8
  %11 = alloca ptr, align 8
  %12 = alloca ptr, align 8
  %13 = alloca double, align 8
  %14 = alloca ptr, align 8
  %15 = alloca %"class.cv::utils::trace::details::Region", align 8
  %16 = alloca %"class.cv::_InputArray", align 8
  %17 = alloca %"class.cv::Vec", align 8
  %18 = alloca ptr, align 8
  %19 = alloca i32, align 4
  %20 = alloca %"class.cv::_InputArray", align 8
  %21 = alloca %"class.cv::Vec", align 8
  store ptr %0, ptr %8, align 8, !tbaa !3
  store ptr %1, ptr %9, align 8, !tbaa !8
  store ptr %2, ptr %10, align 8, !tbaa !10
  store ptr %3, ptr %11, align 8, !tbaa !3
  store ptr %4, ptr %12, align 8, !tbaa !3
  store double %5, ptr %13, align 8, !tbaa !12
  store ptr %6, ptr %14, align 8, !tbaa !8
  call void @llvm.lifetime.start.p0(i64 16, ptr %15) #3
  call void @_ZN2cv5utils5trace7details6RegionC1ERKNS3_21LocationStaticStorageE(ptr noundef nonnull align 8 dereferenceable(12) %15, ptr noundef nonnull align 8 dereferenceable(32) @_ZZN2cv7fisheye13projectPointsERKNS_11_InputArrayERKNS_12_OutputArrayERKNS_7Affine3IdEES3_S3_dS6_E24__cv_trace_location_fn66)
  %22 = load ptr, ptr %8, align 8, !tbaa !3
  %23 = load ptr, ptr %9, align 8, !tbaa !8
  call void @llvm.lifetime.start.p0(i64 24, ptr %16) #3
  call void @llvm.lifetime.start.p0(i64 24, ptr %17) #3
  %24 = load ptr, ptr %10, align 8, !tbaa !10
  invoke void @_ZNK2cv7Affine3IdE4rvecEv(ptr dead_on_unwind writable sret(%"class.cv::Vec") align 8 %17, ptr noundef nonnull align 8 dereferenceable(128) %24)
          to label %25 unwind label %35

25:                                               ; preds = %7
  invoke void @_ZN2cv11_InputArrayC2IdLi3ELi1EEERKNS_4MatxIT_XT0_EXT1_EEE(ptr noundef nonnull align 8 dereferenceable(24) %16, ptr noundef nonnull align 8 dereferenceable(24) %17)
          to label %26 unwind label %35

26:                                               ; preds = %25
  call void @llvm.lifetime.start.p0(i64 24, ptr %20) #3
  call void @llvm.lifetime.start.p0(i64 24, ptr %21) #3
  %27 = load ptr, ptr %10, align 8, !tbaa !10
  invoke void @_ZNK2cv7Affine3IdE11translationEv(ptr dead_on_unwind writable sret(%"class.cv::Vec") align 8 %21, ptr noundef nonnull align 8 dereferenceable(128) %27)
          to label %28 unwind label %39

28:                                               ; preds = %26
  invoke void @_ZN2cv11_InputArrayC2IdLi3ELi1EEERKNS_4MatxIT_XT0_EXT1_EEE(ptr noundef nonnull align 8 dereferenceable(24) %20, ptr noundef nonnull align 8 dereferenceable(24) %21)
          to label %29 unwind label %39

29:                                               ; preds = %28
  %30 = load ptr, ptr %11, align 8, !tbaa !3
  %31 = load ptr, ptr %12, align 8, !tbaa !3
  %32 = load double, ptr %13, align 8, !tbaa !12
  %33 = load ptr, ptr %14, align 8, !tbaa !8
  invoke void @_ZN2cv7fisheye13projectPointsERKNS_11_InputArrayERKNS_12_OutputArrayES3_S3_S3_S3_dS6_(ptr noundef nonnull align 8 dereferenceable(24) %22, ptr noundef nonnull align 8 dereferenceable(24) %23, ptr noundef nonnull align 8 dereferenceable(24) %16, ptr noundef nonnull align 8 dereferenceable(24) %20, ptr noundef nonnull align 8 dereferenceable(24) %30, ptr noundef nonnull align 8 dereferenceable(24) %31, double noundef %32, ptr noundef nonnull align 8 dereferenceable(24) %33)
          to label %34 unwind label %43

34:                                               ; preds = %29
  call void @_ZN2cv11_InputArrayD2Ev(ptr noundef nonnull align 8 dereferenceable(24) %20) #3
  call void @llvm.lifetime.end.p0(i64 24, ptr %21) #3
  call void @llvm.lifetime.end.p0(i64 24, ptr %20) #3
  call void @_ZN2cv11_InputArrayD2Ev(ptr noundef nonnull align 8 dereferenceable(24) %16) #3
  call void @llvm.lifetime.end.p0(i64 24, ptr %17) #3
  call void @llvm.lifetime.end.p0(i64 24, ptr %16) #3
  call void @_ZN2cv5utils5trace7details6RegionD2Ev(ptr noundef nonnull align 8 dereferenceable(12) %15) #3
  call void @llvm.lifetime.end.p0(i64 16, ptr %15) #3
  ret void

35:                                               ; preds = %25, %7
  %36 = landingpad { ptr, i32 }
          cleanup
  %37 = extractvalue { ptr, i32 } %36, 0
  store ptr %37, ptr %18, align 8
  %38 = extractvalue { ptr, i32 } %36, 1
  store i32 %38, ptr %19, align 4
  br label %48

39:                                               ; preds = %28, %26
  %40 = landingpad { ptr, i32 }
          cleanup
  %41 = extractvalue { ptr, i32 } %40, 0
  store ptr %41, ptr %18, align 8
  %42 = extractvalue { ptr, i32 } %40, 1
  store i32 %42, ptr %19, align 4
  br label %47

43:                                               ; preds = %29
  %44 = landingpad { ptr, i32 }
          cleanup
  %45 = extractvalue { ptr, i32 } %44, 0
  store ptr %45, ptr %18, align 8
  %46 = extractvalue { ptr, i32 } %44, 1
  store i32 %46, ptr %19, align 4
  call void @_ZN2cv11_InputArrayD2Ev(ptr noundef nonnull align 8 dereferenceable(24) %20) #3
  br label %47

47:                                               ; preds = %43, %39
  call void @llvm.lifetime.end.p0(i64 24, ptr %21) #3
  call void @llvm.lifetime.end.p0(i64 24, ptr %20) #3
  call void @_ZN2cv11_InputArrayD2Ev(ptr noundef nonnull align 8 dereferenceable(24) %16) #3
  br label %48

48:                                               ; preds = %47, %35
  call void @llvm.lifetime.end.p0(i64 24, ptr %17) #3
  call void @llvm.lifetime.end.p0(i64 24, ptr %16) #3
  call void @_ZN2cv5utils5trace7details6RegionD2Ev(ptr noundef nonnull align 8 dereferenceable(12) %15) #3
  call void @llvm.lifetime.end.p0(i64 16, ptr %15) #3
  br label %49

49:                                               ; preds = %48
  %50 = load ptr, ptr %18, align 8
  %51 = load i32, ptr %19, align 4
  %52 = insertvalue { ptr, i32 } poison, ptr %50, 0
  %53 = insertvalue { ptr, i32 } %52, i32 %51, 1
  resume { ptr, i32 } %53
}