; Function Attrs: mustprogress uwtable
define void @_ZN2cv7fisheye13projectPointsERKNS_11_InputArrayERKNS_12_OutputArrayERKNS_7Affine3IdEES3_S3_dS6_(ptr noundef nonnull align 8 dereferenceable(24) %0, ptr noundef nonnull align 8 dereferenceable(24) %1, ptr noundef nonnull align 8 dereferenceable(128) %2, ptr noundef nonnull align 8 dereferenceable(24) %3, ptr noundef nonnull align 8 dereferenceable(24) %4, double noundef %5, ptr noundef nonnull align 8 dereferenceable(24) %6) local_unnamed_addr #3 personality ptr @__gxx_personality_v0 {
  %8 = alloca %"class.cv::utils::trace::details::Region", align 8
  %9 = alloca %"class.cv::_InputArray", align 8
  %10 = alloca %"class.cv::Vec", align 8
  %11 = alloca %"class.cv::_InputArray", align 8
  %12 = alloca %"class.cv::Vec", align 8
  call void @llvm.lifetime.start.p0(i64 16, ptr nonnull %8) #23
  call void @_ZN2cv5utils5trace7details6RegionC1ERKNS3_21LocationStaticStorageE(ptr noundef nonnull align 8 dereferenceable(12) %8, ptr noundef nonnull align 8 dereferenceable(32) @_ZZN2cv7fisheye13projectPointsERKNS_11_InputArrayERKNS_12_OutputArrayERKNS_7Affine3IdEES3_S3_dS6_E24__cv_trace_location_fn66)
  call void @llvm.lifetime.start.p0(i64 24, ptr nonnull %9) #23
  call void @llvm.lifetime.start.p0(i64 24, ptr nonnull %10) #23
  invoke void @_ZNK2cv7Affine3IdE4rvecEv(ptr dead_on_unwind nonnull writable sret(%"class.cv::Vec") align 8 %10, ptr noundef nonnull align 8 dereferenceable(128) %2)
          to label %13 unwind label %33

13:                                               ; preds = %7
  %14 = getelementptr inbounds nuw i8, ptr %9, i64 16
  store i32 -1056833530, ptr %9, align 8, !tbaa !3
  %15 = getelementptr inbounds nuw i8, ptr %9, i64 8
  store ptr %10, ptr %15, align 8, !tbaa !10
  store i64 12884901889, ptr %14, align 8
  call void @llvm.lifetime.start.p0(i64 24, ptr nonnull %11) #23
  call void @llvm.lifetime.start.p0(i64 24, ptr nonnull %12) #23
  call void @llvm.experimental.noalias.scope.decl(metadata !11)
  %16 = getelementptr inbounds nuw i8, ptr %2, i64 24
  %17 = load double, ptr %16, align 8, !tbaa !14, !noalias !11
  %18 = getelementptr inbounds nuw i8, ptr %2, i64 56
  %19 = load double, ptr %18, align 8, !tbaa !14, !noalias !11
  %20 = getelementptr inbounds nuw i8, ptr %2, i64 88
  %21 = load double, ptr %20, align 8, !tbaa !14, !noalias !11
  store double %17, ptr %12, align 8, !tbaa !14, !alias.scope !11
  %22 = getelementptr inbounds nuw i8, ptr %12, i64 8
  store double %19, ptr %22, align 8, !tbaa !14, !alias.scope !11
  %23 = getelementptr inbounds nuw i8, ptr %12, i64 16
  store double %21, ptr %23, align 8, !tbaa !14, !alias.scope !11
  %24 = getelementptr inbounds nuw i8, ptr %11, i64 16
  store i32 -1056833530, ptr %11, align 8, !tbaa !3
  %25 = getelementptr inbounds nuw i8, ptr %11, i64 8
  store ptr %12, ptr %25, align 8, !tbaa !10
  store i64 12884901889, ptr %24, align 8
  invoke void @_ZN2cv7fisheye13projectPointsERKNS_11_InputArrayERKNS_12_OutputArrayES3_S3_S3_S3_dS6_(ptr noundef nonnull align 8 dereferenceable(24) %0, ptr noundef nonnull align 8 dereferenceable(24) %1, ptr noundef nonnull align 8 dereferenceable(24) %9, ptr noundef nonnull align 8 dereferenceable(24) %11, ptr noundef nonnull align 8 dereferenceable(24) %3, ptr noundef nonnull align 8 dereferenceable(24) %4, double noundef %5, ptr noundef nonnull align 8 dereferenceable(24) %6)
          to label %26 unwind label %35

26:                                               ; preds = %13
  call void @llvm.lifetime.end.p0(i64 24, ptr nonnull %12) #23
  call void @llvm.lifetime.end.p0(i64 24, ptr nonnull %11) #23
  call void @llvm.lifetime.end.p0(i64 24, ptr nonnull %10) #23
  call void @llvm.lifetime.end.p0(i64 24, ptr nonnull %9) #23
  %27 = getelementptr inbounds nuw i8, ptr %8, i64 8
  %28 = load i32, ptr %27, align 8, !tbaa !16
  %.not.i = icmp eq i32 %28, 0
  br i1 %.not.i, label %_ZN2cv5utils5trace7details6RegionD2Ev.exit, label %29

29:                                               ; preds = %26
  invoke void @_ZN2cv5utils5trace7details6Region7destroyEv(ptr noundef nonnull align 8 dereferenceable(12) %8)
          to label %_ZN2cv5utils5trace7details6RegionD2Ev.exit unwind label %30

30:                                               ; preds = %29
  %31 = landingpad { ptr, i32 }
          catch ptr null
  %32 = extractvalue { ptr, i32 } %31, 0
  call void @__clang_call_terminate(ptr %32) #24
  unreachable

_ZN2cv5utils5trace7details6RegionD2Ev.exit:       ; preds = %26, %29
  call void @llvm.lifetime.end.p0(i64 16, ptr nonnull %8) #23
  ret void

33:                                               ; preds = %7
  %34 = landingpad { ptr, i32 }
          cleanup
  br label %37

35:                                               ; preds = %13
  %36 = landingpad { ptr, i32 }
          cleanup
  call void @llvm.lifetime.end.p0(i64 24, ptr nonnull %12) #23
  call void @llvm.lifetime.end.p0(i64 24, ptr nonnull %11) #23
  br label %37

37:                                               ; preds = %35, %33
  %.pn.pn = phi { ptr, i32 } [ %36, %35 ], [ %34, %33 ]
  call void @llvm.lifetime.end.p0(i64 24, ptr nonnull %10) #23
  call void @llvm.lifetime.end.p0(i64 24, ptr nonnull %9) #23
  call void @_ZN2cv5utils5trace7details6RegionD2Ev(ptr noundef nonnull align 8 dereferenceable(12) %8) #23
  call void @llvm.lifetime.end.p0(i64 16, ptr nonnull %8) #23
  resume { ptr, i32 } %.pn.pn
}